target datalayout = "e-m:e-p270:32:32-p271:32:32-p272:64:64-i64:64-i128:128-f80:128-n8:16:32:64-S128"
target triple = "x86_64-pc-linux-gnu"

%struct.DdManager = type { %struct.DdNode, ptr, ptr, ptr, ptr, ptr, ptr, ptr, i32, i32, double, double, double, i32, i32, i32, i32, i32, i32, ptr, ptr, %struct.DdSubtable, i32, i32, i32, i32, i32, i32, i32, double, i32, i32, i32, ptr, i64, double, i32, ptr, ptr, ptr, ptr, ptr, ptr, ptr, i32, ptr, ptr, ptr, ptr, ptr, ptr, i32, i32, i32, double, i32, i32, i32, i32, double, double, i32, i32, i32, i32, i32, i32, i32, i32, i32, ptr, ptr, i32, i32, i32, i32, i32, i32, ptr, ptr, ptr, ptr, ptr, ptr, ptr, ptr, i32, i64, i64, i64, i32, i64, i64, double, double, double, double, double, double, i32, ptr, ptr, i64 }
%struct.DdNode = type { i32, i32, ptr, %union.anon, i64 }
%union.anon = type { %struct.DdChildren }
%struct.DdChildren = type { ptr, ptr }
%struct.DdSubtable = type { ptr, i32, i32, i32, i32, i32, i32, i32, i32, i32, i32, i32 }

; Function Attrs: nounwind uwtable
define void @extraDecomposeCover(ptr noundef %0, ptr noundef %1, ptr noundef %2, ptr noundef %3, ptr noundef %4) #0 {
  %6 = alloca ptr, align 8
  %7 = alloca ptr, align 8
  %8 = alloca ptr, align 8
  %9 = alloca ptr, align 8
  %10 = alloca ptr, align 8
  %11 = alloca ptr, align 8
  store ptr %0, ptr %6, align 8, !tbaa !3
  store ptr %1, ptr %7, align 8, !tbaa !8
  store ptr %2, ptr %8, align 8, !tbaa !56
  store ptr %3, ptr %9, align 8, !tbaa !56
  store ptr %4, ptr %10, align 8, !tbaa !56
  %12 = load ptr, ptr %7, align 8, !tbaa !8
  %13 = getelementptr inbounds nuw %struct.DdNode, ptr %12, i32 0, i32 0
  %14 = load i32, ptr %13, align 8, !tbaa !42
  %15 = and i32 %14, 1
  %16 = icmp eq i32 %15, 0
  br i1 %16, label %17, label %88

17:                                               ; preds = %5
  call void @llvm.lifetime.start.p0(i64 8, ptr %11) #10
  %18 = load ptr, ptr %7, align 8, !tbaa !8
  %19 = getelementptr inbounds nuw %struct.DdNode, ptr %18, i32 0, i32 3
  %20 = getelementptr inbounds nuw %struct.DdChildren, ptr %19, i32 0, i32 1
  %21 = load ptr, ptr %20, align 8, !tbaa !43
  store ptr %21, ptr %11, align 8, !tbaa !8
  %22 = load ptr, ptr %7, align 8, !tbaa !8
  %23 = getelementptr inbounds nuw %struct.DdNode, ptr %22, i32 0, i32 3
  %24 = getelementptr inbounds nuw %struct.DdChildren, ptr %23, i32 0, i32 0
  %25 = load ptr, ptr %24, align 8, !tbaa !43
  %26 = load ptr, ptr %9, align 8, !tbaa !56
  store ptr %25, ptr %26, align 8, !tbaa !8
  %27 = load ptr, ptr %11, align 8, !tbaa !8
  %28 = getelementptr inbounds nuw %struct.DdNode, ptr %27, i32 0, i32 0
  %29 = load i32, ptr %28, align 8, !tbaa !42
  %30 = icmp eq i32 %29, 2147483647
  br i1 %30, label %31, label %35

31:                                               ; preds = %17
  %32 = load ptr, ptr %11, align 8, !tbaa !8
  %33 = getelementptr inbounds nuw %struct.DdNode, ptr %32, i32 0, i32 0
  %34 = load i32, ptr %33, align 8, !tbaa !42
  br label %45

35:                                               ; preds = %17
  %36 = load ptr, ptr %6, align 8, !tbaa !3
  %37 = getelementptr inbounds nuw %struct.DdManager, ptr %36, i32 0, i32 38
  %38 = load ptr, ptr %37, align 8, !tbaa !88
  %39 = load ptr, ptr %11, align 8, !tbaa !8
  %40 = getelementptr inbounds nuw %struct.DdNode, ptr %39, i32 0, i32 0
  %41 = load i32, ptr %40, align 8, !tbaa !42
  %42 = zext i32 %41 to i64
  %43 = getelementptr inbounds nuw i32, ptr %38, i64 %42
  %44 = load i32, ptr %43, align 4, !tbaa !37
  br label %45

45:                                               ; preds = %35, %31
  %46 = phi i32 [ %34, %31 ], [ %44, %35 ]
  %47 = load ptr, ptr %7, align 8, !tbaa !8
  %48 = getelementptr inbounds nuw %struct.DdNode, ptr %47, i32 0, i32 0
  %49 = load i32, ptr %48, align 8, !tbaa !42
  %50 = icmp eq i32 %49, 2147483647
  br i1 %50, label %51, label %55

51:                                               ; preds = %45
  %52 = load ptr, ptr %7, align 8, !tbaa !8
  %53 = getelementptr inbounds nuw %struct.DdNode, ptr %52, i32 0, i32 0
  %54 = load i32, ptr %53, align 8, !tbaa !42
  br label %65

55:                                               ; preds = %45
  %56 = load ptr, ptr %6, align 8, !tbaa !3
  %57 = getelementptr inbounds nuw %struct.DdManager, ptr %56, i32 0, i32 38
  %58 = load ptr, ptr %57, align 8, !tbaa !88
  %59 = load ptr, ptr %7, align 8, !tbaa !8
  %60 = getelementptr inbounds nuw %struct.DdNode, ptr %59, i32 0, i32 0
  %61 = load i32, ptr %60, align 8, !tbaa !42
  %62 = zext i32 %61 to i64
  %63 = getelementptr inbounds nuw i32, ptr %58, i64 %62
  %64 = load i32, ptr %63, align 4, !tbaa !37
  br label %65

65:                                               ; preds = %55, %51
  %66 = phi i32 [ %54, %51 ], [ %64, %55 ]
  %67 = add nsw i32 %66, 1
  %68 = icmp eq i32 %46, %67
  br i1 %68, label %69, label %80

69:                                               ; preds = %65
  %70 = load ptr, ptr %11, align 8, !tbaa !8
  %71 = getelementptr inbounds nuw %struct.DdNode, ptr %70, i32 0, i32 3
  %72 = getelementptr inbounds nuw %struct.DdChildren, ptr %71, i32 0, i32 1
  %73 = load ptr, ptr %72, align 8, !tbaa !43
  %74 = load ptr, ptr %10, align 8, !tbaa !56
  store ptr %73, ptr %74, align 8, !tbaa !8
  %75 = load ptr, ptr %11, align 8, !tbaa !8
  %76 = getelementptr inbounds nuw %struct.DdNode, ptr %75, i32 0, i32 3
  %77 = getelementptr inbounds nuw %struct.DdChildren, ptr %76, i32 0, i32 0
  %78 = load ptr, ptr %77, align 8, !tbaa !43
  %79 = load ptr, ptr %8, align 8, !tbaa !56
  store ptr %78, ptr %79, align 8, !tbaa !8
  br label %87

80:                                               ; preds = %65
  %81 = load ptr, ptr %11, align 8, !tbaa !8
  %82 = load ptr, ptr %10, align 8, !tbaa !56
  store ptr %81, ptr %82, align 8, !tbaa !8
  %83 = load ptr, ptr %6, align 8, !tbaa !3
  %84 = getelementptr inbounds nuw %struct.DdManager, ptr %83, i32 0, i32 2
  %85 = load ptr, ptr %84, align 8, !tbaa !76
  %86 = load ptr, ptr %8, align 8, !tbaa !56
  store ptr %85, ptr %86, align 8, !tbaa !8
  br label %87

87:                                               ; preds = %80, %69
  call void @llvm.lifetime.end.p0(i64 8, ptr %11) #10
  br label %103

88:                                               ; preds = %5
  %89 = load ptr, ptr %6, align 8, !tbaa !3
  %90 = getelementptr inbounds nuw %struct.DdManager, ptr %89, i32 0, i32 2
  %91 = load ptr, ptr %90, align 8, !tbaa !76
  %92 = load ptr, ptr %9, align 8, !tbaa !56
  store ptr %91, ptr %92, align 8, !tbaa !8
  %93 = load ptr, ptr %7, align 8, !tbaa !8
  %94 = getelementptr inbounds nuw %struct.DdNode, ptr %93, i32 0, i32 3
  %95 = getelementptr inbounds nuw %struct.DdChildren, ptr %94, i32 0, i32 1
  %96 = load ptr, ptr %95, align 8, !tbaa !43
  %97 = load ptr, ptr %10, align 8, !tbaa !56
  store ptr %96, ptr %97, align 8, !tbaa !8
  %98 = load ptr, ptr %7, align 8, !tbaa !8
  %99 = getelementptr inbounds nuw %struct.DdNode, ptr %98, i32 0, i32 3
  %100 = getelementptr inbounds nuw %struct.DdChildren, ptr %99, i32 0, i32 0
  %101 = load ptr, ptr %100, align 8, !tbaa !43
  %102 = load ptr, ptr %8, align 8, !tbaa !56
  store ptr %101, ptr %102, align 8, !tbaa !8
  br label %103

103:                                              ; preds = %88, %87
  ret void
}