; Function Attrs: mustprogress nofree norecurse nosync nounwind willreturn memory(read, argmem: readwrite, inaccessiblemem: none) uwtable
define void @extraDecomposeCover(ptr noundef readonly captures(none) %0, ptr noundef readonly captures(none) %1, ptr noundef writeonly captures(none) initializes((0, 8)) %2, ptr noundef writeonly captures(none) initializes((0, 8)) %3, ptr noundef writeonly captures(none) initializes((0, 8)) %4) local_unnamed_addr #10 {
  %6 = load i32, ptr %1, align 8, !tbaa !35
  %7 = and i32 %6, 1
  %8 = icmp eq i32 %7, 0
  br i1 %8, label %9, label %32

9:                                                ; preds = %5
  %10 = getelementptr inbounds nuw i8, ptr %1, i64 16
  %11 = getelementptr inbounds nuw i8, ptr %1, i64 24
  %12 = load ptr, ptr %11, align 8, !tbaa !36
  %13 = load ptr, ptr %10, align 8, !tbaa !36
  store ptr %13, ptr %3, align 8, !tbaa !25
  %14 = load i32, ptr %12, align 8, !tbaa !35
  %15 = icmp eq i32 %14, 2147483647
  %.phi.trans.insert = getelementptr inbounds nuw i8, ptr %0, i64 320
  %.pre = load ptr, ptr %.phi.trans.insert, align 8, !tbaa !75
  br i1 %15, label %._crit_edge, label %16

16:                                               ; preds = %9
  %17 = zext i32 %14 to i64
  %18 = getelementptr inbounds nuw i32, ptr %.pre, i64 %17
  %19 = load i32, ptr %18, align 4, !tbaa !31
  br label %._crit_edge

._crit_edge:                                      ; preds = %9, %16
  %20 = phi i32 [ %19, %16 ], [ 2147483647, %9 ]
  %21 = zext i32 %6 to i64
  %22 = getelementptr inbounds nuw i32, ptr %.pre, i64 %21
  %23 = load i32, ptr %22, align 4, !tbaa !31
  %24 = add nsw i32 %23, 1
  %25 = icmp eq i32 %20, %24
  br i1 %25, label %26, label %30

26:                                               ; preds = %._crit_edge
  %27 = getelementptr inbounds nuw i8, ptr %12, i64 16
  %28 = getelementptr inbounds nuw i8, ptr %12, i64 24
  %29 = load ptr, ptr %28, align 8, !tbaa !36
  store ptr %29, ptr %4, align 8, !tbaa !25
  br label %38

30:                                               ; preds = %._crit_edge
  store ptr %12, ptr %4, align 8, !tbaa !25
  %31 = getelementptr inbounds nuw i8, ptr %0, i64 48
  br label %38

32:                                               ; preds = %5
  %33 = getelementptr inbounds nuw i8, ptr %0, i64 48
  %34 = load ptr, ptr %33, align 8, !tbaa !63
  store ptr %34, ptr %3, align 8, !tbaa !25
  %35 = getelementptr inbounds nuw i8, ptr %1, i64 16
  %36 = getelementptr inbounds nuw i8, ptr %1, i64 24
  %37 = load ptr, ptr %36, align 8, !tbaa !36
  store ptr %37, ptr %4, align 8, !tbaa !25
  br label %38

38:                                               ; preds = %26, %30, %32
  %storemerge28.in = phi ptr [ %35, %32 ], [ %31, %30 ], [ %27, %26 ]
  %storemerge28 = load ptr, ptr %storemerge28.in, align 8, !tbaa !36
  store ptr %storemerge28, ptr %2, align 8, !tbaa !25
  ret void
}